; Function Attrs: nounwind uwtable
define internal i32 @procfs_close(ptr noundef %0) #0 {
  %2 = getelementptr inbounds nuw i8, ptr %0, i64 16
  %3 = load ptr, ptr %2, align 8
  %4 = load ptr, ptr %3, align 8
  %5 = getelementptr inbounds nuw i8, ptr %4, i64 8
  %6 = load ptr, ptr %5, align 8
  %7 = getelementptr inbounds nuw i8, ptr %6, i64 8
  %8 = load ptr, ptr %7, align 8
  %.not = icmp eq ptr %8, null
  br i1 %.not, label %11, label %9

9:                                                ; preds = %1
  %10 = tail call i32 %8(ptr noundef nonnull %0) #12
  br label %12

11:                                               ; preds = %1
  tail call void @free(ptr noundef nonnull %3)
  br label %12

12:                                               ; preds = %11, %9
  %.0 = phi i32 [ %10, %9 ], [ 0, %11 ]
  store ptr null, ptr %2, align 8
  ret i32 %.0
}